target datalayout = "e-m:e-p270:32:32-p271:32:32-p272:64:64-i64:64-i128:128-f80:128-n8:16:32:64-S128"
target triple = "x86_64-pc-linux-gnu"

%struct.popup_pos_t = type { i32, i32, i32, i32 }
%struct.display_data = type { i64, i32, ptr, i8, i32, ptr, ptr, ptr, ptr, ptr, ptr, ptr, ptr }
%struct.each_t = type { ptr, ptr, ptr }

@popup_pos = external global %struct.popup_pos_t, align 4

; Function Attrs: nounwind uwtable
define internal void @_foreach_full_info(ptr noundef %0, ptr noundef %1, ptr noundef %2, ptr noundef %3) #0 {
  %5 = alloca ptr, align 8
  %6 = alloca ptr, align 8
  %7 = alloca ptr, align 8
  %8 = alloca ptr, align 8
  %9 = alloca ptr, align 8
  store ptr %0, ptr %5, align 8
  store ptr %1, ptr %6, align 8
  store ptr %2, ptr %7, align 8
  store ptr %3, ptr %8, align 8
  call void @llvm.lifetime.start.p0(i64 8, ptr %9) #11
  %10 = load ptr, ptr %8, align 8
  store ptr %10, ptr %9, align 8
  %11 = load ptr, ptr %9, align 8
  %12 = getelementptr inbounds nuw %struct.each_t, ptr %11, i32 0, i32 0
  %13 = load ptr, ptr %12, align 8
  %14 = getelementptr inbounds nuw %struct.display_data, ptr %13, i32 0, i32 10
  %15 = load ptr, ptr %14, align 8
  %16 = load ptr, ptr %9, align 8
  %17 = getelementptr inbounds nuw %struct.each_t, ptr %16, i32 0, i32 2
  %18 = load ptr, ptr %17, align 8
  %19 = load ptr, ptr %6, align 8
  call void %15(ptr noundef %18, ptr noundef null, ptr noundef %19, i32 noundef 3)
  %20 = load i32, ptr getelementptr inbounds nuw (%struct.popup_pos_t, ptr @popup_pos, i32 0, i32 3), align 4
  %21 = load i32, ptr getelementptr inbounds nuw (%struct.popup_pos_t, ptr @popup_pos, i32 0, i32 2), align 4
  %22 = mul nsw i32 %21, 10
  %23 = add nsw i32 %20, %22
  store i32 %23, ptr @popup_pos, align 4
  %24 = load i32, ptr getelementptr inbounds nuw (%struct.popup_pos_t, ptr @popup_pos, i32 0, i32 2), align 4
  %25 = mul nsw i32 %24, 22
  store i32 %25, ptr getelementptr inbounds nuw (%struct.popup_pos_t, ptr @popup_pos, i32 0, i32 1), align 4
  %26 = load i32, ptr getelementptr inbounds nuw (%struct.popup_pos_t, ptr @popup_pos, i32 0, i32 2), align 4
  %27 = add nsw i32 %26, 1
  store i32 %27, ptr getelementptr inbounds nuw (%struct.popup_pos_t, ptr @popup_pos, i32 0, i32 2), align 4
  %28 = load i32, ptr getelementptr inbounds nuw (%struct.popup_pos_t, ptr @popup_pos, i32 0, i32 2), align 4
  %29 = icmp sgt i32 %28, 10
  br i1 %29, label %30, label %33

30:                                               ; preds = %4
  store i32 1, ptr getelementptr inbounds nuw (%struct.popup_pos_t, ptr @popup_pos, i32 0, i32 2), align 4
  %31 = load i32, ptr getelementptr inbounds nuw (%struct.popup_pos_t, ptr @popup_pos, i32 0, i32 3), align 4
  %32 = add nsw i32 %31, 100
  store i32 %32, ptr getelementptr inbounds nuw (%struct.popup_pos_t, ptr @popup_pos, i32 0, i32 3), align 4
  br label %33

33:                                               ; preds = %30, %4
  call void @llvm.lifetime.end.p0(i64 8, ptr %9) #11
  ret void
}