; Function Attrs: nounwind uwtable
define internal void @_foreach_full_info(ptr readnone captures(none) %0, ptr noundef %1, ptr readnone captures(none) %2, ptr noundef readonly captures(none) %3) #2 {
  %5 = load ptr, ptr %3, align 8
  %6 = getelementptr inbounds nuw i8, ptr %5, i64 72
  %7 = load ptr, ptr %6, align 8
  %8 = getelementptr inbounds nuw i8, ptr %3, i64 16
  %9 = load ptr, ptr %8, align 8
  tail call void %7(ptr noundef %9, ptr noundef null, ptr noundef %1, i32 noundef 3) #16
  %10 = load i32, ptr getelementptr inbounds nuw (i8, ptr @popup_pos, i64 12), align 4
  %11 = load i32, ptr getelementptr inbounds nuw (i8, ptr @popup_pos, i64 8), align 4
  %12 = mul nsw i32 %11, 10
  %13 = add nsw i32 %12, %10
  store i32 %13, ptr @popup_pos, align 4
  %14 = mul nsw i32 %11, 22
  store i32 %14, ptr getelementptr inbounds nuw (i8, ptr @popup_pos, i64 4), align 4
  %15 = add nsw i32 %11, 1
  store i32 %15, ptr getelementptr inbounds nuw (i8, ptr @popup_pos, i64 8), align 4
  %16 = icmp sgt i32 %11, 9
  br i1 %16, label %17, label %19

17:                                               ; preds = %4
  store i32 1, ptr getelementptr inbounds nuw (i8, ptr @popup_pos, i64 8), align 4
  %18 = add nsw i32 %10, 100
  store i32 %18, ptr getelementptr inbounds nuw (i8, ptr @popup_pos, i64 12), align 4
  br label %19

19:                                               ; preds = %17, %4
  ret void
}